; Function Attrs: nounwind uwtable
define dso_local void @tuplehash_grow(ptr noundef captures(none) %0, i64 noundef %1) local_unnamed_addr #0 {
  %3 = load i64, ptr %0, align 8
  %4 = getelementptr inbounds nuw i8, ptr %0, i64 24
  %5 = load ptr, ptr %4, align 8
  %6 = tail call i64 @llvm.umax.i64(i64 %1, i64 2)
  %7 = tail call range(i64 1, 65) i64 @llvm.ctpop.i64(i64 %6)
  %8 = icmp samesign ult i64 %7, 2
  %9 = tail call range(i64 0, 65) i64 @llvm.ctlz.i64(i64 %6, i1 true)
  %10 = sub nuw nsw i64 64, %9
  %11 = shl nuw i64 1, %10
  %.0.i.i = select i1 %8, i64 %6, i64 %11
  %12 = mul i64 %.0.i.i, 24
  %13 = icmp ugt i64 %12, 9223372036854775806
  br i1 %13, label %14, label %tuplehash_compute_size.exit, !prof !4

14:                                               ; preds = %2
  %15 = tail call zeroext i1 @errstart_cold(i32 noundef 21, ptr noundef null) #16
  tail call void @llvm.assume(i1 %15)
  %16 = tail call i32 (ptr, ...) @errmsg_internal(ptr noundef nonnull @.str.4) #15
  tail call void @errfinish(ptr noundef nonnull @.str.1, i32 noundef 327, ptr noundef nonnull @__func__.tuplehash_compute_size) #15
  unreachable

tuplehash_compute_size.exit:                      ; preds = %2
  %17 = getelementptr i8, ptr %0, i64 32
  %.val = load ptr, ptr %17, align 8
  %18 = tail call ptr @MemoryContextAllocExtended(ptr noundef %.val, i64 noundef %12, i32 noundef 5) #15
  store ptr %18, ptr %4, align 8
  %19 = tail call range(i64 1, 65) i64 @llvm.ctpop.i64(i64 %.0.i.i)
  %20 = icmp samesign ult i64 %19, 2
  %21 = tail call range(i64 0, 65) i64 @llvm.ctlz.i64(i64 %.0.i.i, i1 true)
  %22 = sub nuw nsw i64 64, %21
  %23 = shl nuw i64 1, %22
  %.0.i.i.i = select i1 %20, i64 %.0.i.i, i64 %23
  %24 = mul i64 %.0.i.i.i, 24
  %25 = icmp ugt i64 %24, 9223372036854775806
  br i1 %25, label %26, label %tuplehash_update_parameters.exit, !prof !4

26:                                               ; preds = %tuplehash_compute_size.exit
  %27 = tail call zeroext i1 @errstart_cold(i32 noundef 21, ptr noundef null) #16
  tail call void @llvm.assume(i1 %27)
  %28 = tail call i32 (ptr, ...) @errmsg_internal(ptr noundef nonnull @.str.4) #15
  tail call void @errfinish(ptr noundef nonnull @.str.1, i32 noundef 327, ptr noundef nonnull @__func__.tuplehash_compute_size) #15
  unreachable

tuplehash_update_parameters.exit:                 ; preds = %tuplehash_compute_size.exit
  store i64 %.0.i.i.i, ptr %0, align 8
  %29 = trunc i64 %.0.i.i.i to i32
  %30 = add i32 %29, -1
  %31 = getelementptr inbounds nuw i8, ptr %0, i64 12
  store i32 %30, ptr %31, align 4
  %32 = icmp eq i64 %.0.i.i.i, 4294967296
  %33 = uitofp i64 %.0.i.i.i to double
  %34 = fmul double %33, 9.000000e-01
  %35 = fptoui double %34 to i32
  %.sink.i = select i1 %32, i32 -85899346, i32 %35
  %36 = getelementptr inbounds nuw i8, ptr %0, i64 16
  store i32 %.sink.i, ptr %36, align 8
  %.not72 = icmp eq i64 %3, 0
  br i1 %.not72, label %._crit_edge, label %.lr.ph

.lr.ph:                                           ; preds = %tuplehash_update_parameters.exit, %45
  %37 = phi i64 [ %47, %45 ], [ 0, %tuplehash_update_parameters.exit ]
  %.064 = phi i32 [ %46, %45 ], [ 0, %tuplehash_update_parameters.exit ]
  %38 = getelementptr inbounds nuw %struct.TupleHashEntryData, ptr %5, i64 %37
  %39 = getelementptr inbounds nuw i8, ptr %38, i64 16
  %40 = load i32, ptr %39, align 8
  %.not = icmp eq i32 %40, 1
  br i1 %.not, label %41, label %.lr.ph71.preheader

41:                                               ; preds = %.lr.ph
  %42 = getelementptr i8, ptr %38, i64 20
  %.val56 = load i32, ptr %42, align 4
  %43 = and i32 %.val56, %30
  %44 = icmp eq i32 %43, %.064
  br i1 %44, label %.lr.ph71.preheader, label %45

45:                                               ; preds = %41
  %46 = add i32 %.064, 1
  %47 = zext i32 %46 to i64
  %48 = icmp ugt i64 %3, %47
  br i1 %48, label %.lr.ph, label %.lr.ph71.preheader, !llvm.loop !5

.lr.ph71.preheader:                               ; preds = %45, %.lr.ph, %41
  %.05169.ph = phi i32 [ %.064, %41 ], [ %.064, %.lr.ph ], [ 0, %45 ]
  br label %.lr.ph71

.lr.ph71:                                         ; preds = %.lr.ph71.preheader, %64
  %.170 = phi i32 [ %67, %64 ], [ 0, %.lr.ph71.preheader ]
  %.05169 = phi i32 [ %spec.store.select, %64 ], [ %.05169.ph, %.lr.ph71.preheader ]
  %49 = zext i32 %.05169 to i64
  %50 = getelementptr inbounds nuw %struct.TupleHashEntryData, ptr %5, i64 %49
  %51 = getelementptr inbounds nuw i8, ptr %50, i64 16
  %52 = load i32, ptr %51, align 8
  %53 = icmp eq i32 %52, 1
  br i1 %53, label %54, label %64

54:                                               ; preds = %.lr.ph71
  %55 = getelementptr i8, ptr %50, i64 20
  %.val57 = load i32, ptr %55, align 4
  %.val59 = load i32, ptr %31, align 4
  br label %56

56:                                               ; preds = %56, %54
  %.val57.pn = phi i32 [ %.val57, %54 ], [ %62, %56 ]
  %.048 = and i32 %.val57.pn, %.val59
  %57 = zext i32 %.048 to i64
  %58 = getelementptr inbounds nuw %struct.TupleHashEntryData, ptr %18, i64 %57
  %59 = getelementptr inbounds nuw i8, ptr %58, i64 16
  %60 = load i32, ptr %59, align 8
  %61 = icmp eq i32 %60, 0
  %62 = add i32 %.048, 1
  br i1 %61, label %63, label %56

63:                                               ; preds = %56
  tail call void @llvm.memcpy.p0.p0.i64(ptr noundef nonnull align 8 dereferenceable(24) %58, ptr noundef nonnull align 8 dereferenceable(24) %50, i64 24, i1 false)
  br label %64

64:                                               ; preds = %63, %.lr.ph71
  %65 = add i32 %.05169, 1
  %66 = zext i32 %65 to i64
  %.not55 = icmp ugt i64 %3, %66
  %spec.store.select = select i1 %.not55, i32 %65, i32 0
  %67 = add i32 %.170, 1
  %68 = zext i32 %67 to i64
  %69 = icmp ugt i64 %3, %68
  br i1 %69, label %.lr.ph71, label %._crit_edge, !llvm.loop !7

._crit_edge:                                      ; preds = %64, %tuplehash_update_parameters.exit
  tail call void @pfree(ptr noundef %5) #15
  ret void
}